; Function Attrs: nounwind uwtable
define noalias noundef ptr @Gia_ManMapEquivAfterScorr(ptr noundef %0, ptr noundef readonly captures(none) %1) local_unnamed_addr #2 {
  %3 = getelementptr i8, ptr %1, i64 4
  %.val56 = load i32, ptr %3, align 4, !tbaa !34
  %4 = tail call noalias dereferenceable_or_null(16) ptr @malloc(i64 noundef 16) #26
  %5 = add i32 %.val56, -1
  %or.cond.i.i = icmp ult i32 %5, 15
  %spec.store.select.i.i = select i1 %or.cond.i.i, i32 16, i32 %.val56
  %6 = getelementptr i8, ptr %4, i64 4
  store i32 %spec.store.select.i.i, ptr %4, align 8, !tbaa !33
  %.not.i.i = icmp eq i32 %spec.store.select.i.i, 0
  br i1 %.not.i.i, label %Vec_IntAlloc.exit.thread.i, label %Vec_IntAlloc.exit.i

Vec_IntAlloc.exit.thread.i:                       ; preds = %2
  %7 = getelementptr inbounds nuw i8, ptr %4, i64 8
  store ptr null, ptr %7, align 8, !tbaa !11
  store i32 %.val56, ptr %6, align 4, !tbaa !34
  br label %Vec_IntStartFull.exit

Vec_IntAlloc.exit.i:                              ; preds = %2
  %8 = sext i32 %spec.store.select.i.i to i64
  %9 = shl nsw i64 %8, 2
  %10 = tail call noalias ptr @malloc(i64 noundef %9) #26
  %11 = getelementptr inbounds nuw i8, ptr %4, i64 8
  store ptr %10, ptr %11, align 8, !tbaa !11
  store i32 %.val56, ptr %6, align 4, !tbaa !34
  %.not.i = icmp eq ptr %10, null
  br i1 %.not.i, label %Vec_IntStartFull.exit, label %12

12:                                               ; preds = %Vec_IntAlloc.exit.i
  %13 = sext i32 %.val56 to i64
  %14 = shl nsw i64 %13, 2
  tail call void @llvm.memset.p0.i64(ptr nonnull align 4 %10, i8 -1, i64 %14, i1 false)
  br label %Vec_IntStartFull.exit

Vec_IntStartFull.exit:                            ; preds = %Vec_IntAlloc.exit.thread.i, %Vec_IntAlloc.exit.i, %12
  %.val51 = phi ptr [ null, %Vec_IntAlloc.exit.thread.i ], [ null, %Vec_IntAlloc.exit.i ], [ %10, %12 ]
  %15 = getelementptr i8, ptr %0, i64 24
  %.val59 = load i32, ptr %15, align 8, !tbaa !48
  %16 = add i32 %.val59, -1
  %or.cond.i.i64 = icmp ult i32 %16, 15
  %spec.store.select.i.i65 = select i1 %or.cond.i.i64, i32 16, i32 %.val59
  %.not.i.i66 = icmp eq i32 %spec.store.select.i.i65, 0
  br i1 %.not.i.i66, label %Vec_IntStartFull.exit70, label %Vec_IntAlloc.exit.i67

Vec_IntAlloc.exit.i67:                            ; preds = %Vec_IntStartFull.exit
  %17 = sext i32 %spec.store.select.i.i65 to i64
  %18 = shl nsw i64 %17, 2
  %19 = tail call noalias ptr @malloc(i64 noundef %18) #26
  %.not.i68 = icmp eq ptr %19, null
  br i1 %.not.i68, label %Vec_IntStartFull.exit70, label %20

20:                                               ; preds = %Vec_IntAlloc.exit.i67
  %21 = sext i32 %.val59 to i64
  %22 = shl nsw i64 %21, 2
  tail call void @llvm.memset.p0.i64(ptr nonnull align 4 %19, i8 -1, i64 %22, i1 false)
  br label %Vec_IntStartFull.exit70

Vec_IntStartFull.exit70:                          ; preds = %Vec_IntStartFull.exit, %Vec_IntAlloc.exit.i67, %20
  %23 = phi ptr [ null, %Vec_IntAlloc.exit.i67 ], [ %19, %20 ], [ null, %Vec_IntStartFull.exit ]
  %24 = icmp sgt i32 %.val56, 0
  br i1 %24, label %.lr.ph, label %.critedge

.lr.ph:                                           ; preds = %Vec_IntStartFull.exit70
  %25 = getelementptr i8, ptr %1, i64 8
  %.val53 = load ptr, ptr %25, align 8, !tbaa !11
  %26 = getelementptr i8, ptr %0, i64 192
  %27 = zext nneg i32 %.val56 to i64
  br label %28

28:                                               ; preds = %.lr.ph, %49
  %indvars.iv = phi i64 [ 0, %.lr.ph ], [ %indvars.iv.next, %49 ]
  %29 = getelementptr inbounds nuw i32, ptr %.val53, i64 %indvars.iv
  %30 = load i32, ptr %29, align 4, !tbaa !10
  %31 = icmp eq i32 %30, -1
  br i1 %31, label %49, label %32

32:                                               ; preds = %28
  %33 = ashr i32 %30, 1
  %.val63 = load ptr, ptr %26, align 8, !tbaa !112
  %34 = sext i32 %33 to i64
  %35 = getelementptr inbounds %struct.Gia_Rpr_t_, ptr %.val63, i64 %34
  %36 = load i32, ptr %35, align 4
  %37 = and i32 %36, 268435455
  %.not1.i = icmp eq i32 %37, 268435455
  %spec.select.i = select i1 %.not1.i, i32 %33, i32 %37
  %38 = sext i32 %spec.select.i to i64
  %39 = getelementptr inbounds i32, ptr %23, i64 %38
  %40 = load i32, ptr %39, align 4, !tbaa !10
  %41 = icmp eq i32 %40, -1
  br i1 %41, label %42, label %44

42:                                               ; preds = %32
  %43 = trunc nuw nsw i64 %indvars.iv to i32
  store i32 %43, ptr %39, align 4, !tbaa !10
  br label %49

44:                                               ; preds = %32
  %45 = zext i32 %40 to i64
  %46 = icmp eq i64 %indvars.iv, %45
  br i1 %46, label %49, label %47

47:                                               ; preds = %44
  %48 = getelementptr inbounds nuw i32, ptr %.val51, i64 %indvars.iv
  store i32 %40, ptr %48, align 4, !tbaa !10
  br label %49

49:                                               ; preds = %44, %28, %47, %42
  %indvars.iv.next = add nuw nsw i64 %indvars.iv, 1
  %50 = icmp samesign ult i64 %indvars.iv.next, %27
  br i1 %50, label %28, label %.critedge, !llvm.loop !127

.critedge:                                        ; preds = %49, %Vec_IntStartFull.exit70
  %.not.i71 = icmp eq ptr %23, null
  br i1 %.not.i71, label %Vec_IntFree.exit, label %51

51:                                               ; preds = %.critedge
  tail call void @free(ptr noundef nonnull %23) #25
  br label %Vec_IntFree.exit

Vec_IntFree.exit:                                 ; preds = %.critedge, %51
  tail call void @Gia_ManSetPhase(ptr noundef %0) #25
  br i1 %24, label %.lr.ph75, label %.critedge2

.lr.ph75:                                         ; preds = %Vec_IntFree.exit
  %52 = getelementptr i8, ptr %1, i64 8
  %53 = getelementptr i8, ptr %0, i64 32
  %wide.trip.count = zext nneg i32 %.val56 to i64
  br label %54

54:                                               ; preds = %.lr.ph75, %82
  %indvars.iv77 = phi i64 [ 0, %.lr.ph75 ], [ %indvars.iv.next78, %82 ]
  %55 = getelementptr inbounds nuw i32, ptr %.val51, i64 %indvars.iv77
  %56 = load i32, ptr %55, align 4, !tbaa !10
  %57 = icmp eq i32 %56, -1
  br i1 %57, label %82, label %58

58:                                               ; preds = %54
  %.val50 = load ptr, ptr %52, align 8, !tbaa !11
  %59 = getelementptr inbounds nuw i32, ptr %.val50, i64 %indvars.iv77
  %60 = load i32, ptr %59, align 4, !tbaa !10
  %61 = sext i32 %56 to i64
  %62 = getelementptr inbounds i32, ptr %.val50, i64 %61
  %63 = load i32, ptr %62, align 4, !tbaa !10
  %64 = ashr i32 %60, 1
  %.val58 = load ptr, ptr %53, align 8, !tbaa !41
  %65 = sext i32 %64 to i64
  %66 = getelementptr inbounds %struct.Gia_Obj_t_, ptr %.val58, i64 %65
  %67 = ashr i32 %63, 1
  %68 = sext i32 %67 to i64
  %69 = getelementptr inbounds %struct.Gia_Obj_t_, ptr %.val58, i64 %68
  %70 = xor i32 %63, %60
  %71 = and i32 %70, 1
  %72 = load i64, ptr %66, align 4
  %73 = lshr i64 %72, 63
  %74 = trunc nuw nsw i64 %73 to i32
  %75 = xor i32 %71, %74
  %76 = load i64, ptr %69, align 4
  %77 = lshr i64 %76, 63
  %78 = trunc nuw nsw i64 %77 to i32
  %79 = xor i32 %75, %78
  %80 = shl nsw i32 %56, 1
  %81 = or disjoint i32 %79, %80
  store i32 %81, ptr %55, align 4, !tbaa !10
  br label %82

82:                                               ; preds = %54, %58
  %indvars.iv.next78 = add nuw nsw i64 %indvars.iv77, 1
  %exitcond.not = icmp eq i64 %indvars.iv.next78, %wide.trip.count
  br i1 %exitcond.not, label %.critedge2, label %54, !llvm.loop !128

.critedge2:                                       ; preds = %82, %Vec_IntFree.exit
  ret ptr %4
}